; Function Attrs: mustprogress uwtable
define internal fastcc void @_ZN4leanL11setup_stdioENS_5stdioE(ptr dead_on_unwind noalias nonnull writable writeonly align 4 captures(none) %0, i32 noundef range(i32 0, 256) %1) unnamed_addr #0 personality ptr @__gxx_personality_v0 {
  %3 = alloca [2 x i32], align 8
  %trunc = trunc nuw i32 %1 to i8
  switch i8 %trunc, label %16 [
    i8 1, label %4
    i8 0, label %5
    i8 2, label %15
  ]

4:                                                ; preds = %2
  store i8 0, ptr %0, align 4, !tbaa !26
  br label %21

5:                                                ; preds = %2
  %6 = call i32 @pipe2(ptr noundef nonnull %3, i32 noundef 524288) #24
  %7 = icmp eq i32 %6, -1
  br i1 %7, label %8, label %12

8:                                                ; preds = %5
  %9 = call ptr @__cxa_allocate_exception(i64 4) #24
  %10 = tail call ptr @__errno_location() #26
  %11 = load i32, ptr %10, align 4, !tbaa !3
  store i32 %11, ptr %9, align 16, !tbaa !3
  call void @__cxa_throw(ptr nonnull %9, ptr nonnull @_ZTIi, ptr null) #25
  unreachable

12:                                               ; preds = %5
  %13 = load i64, ptr %3, align 8
  store i8 1, ptr %0, align 4, !tbaa !26
  %14 = getelementptr inbounds nuw i8, ptr %0, i64 4
  store i64 %13, ptr %14, align 4
  br label %21

15:                                               ; preds = %2
  store i8 0, ptr %0, align 4, !tbaa !26
  br label %21

16:                                               ; preds = %2
  %17 = tail call ptr @__cxa_allocate_exception(i64 40) #24
  %18 = getelementptr inbounds nuw i8, ptr %17, i64 8
  %19 = getelementptr inbounds nuw i8, ptr %17, i64 24
  store ptr %19, ptr %18, align 8, !tbaa !45
  %20 = getelementptr inbounds nuw i8, ptr %17, i64 16
  store i64 0, ptr %20, align 8, !tbaa !48
  store i8 0, ptr %19, align 1, !tbaa !13
  store ptr getelementptr inbounds nuw inrange(-16, 24) (i8, ptr @_ZTVN4lean19unreachable_reachedE, i64 16), ptr %17, align 8, !tbaa !50
  tail call void @__cxa_throw(ptr nonnull %17, ptr nonnull @_ZTIN4lean19unreachable_reachedE, ptr nonnull @_ZN4lean9throwableD2Ev) #25
  unreachable

21:                                               ; preds = %15, %12, %4
  ret void
}